; Function Attrs: mustprogress nofree norecurse nosync nounwind willreturn memory(read, inaccessiblemem: none) uwtable
define noundef i32 @_ZNK6icu_7517UCharsTrieBuilder23skipElementsBySomeUnitsEiii(ptr nocapture noundef nonnull readonly align 8 dereferenceable(112) %this, i32 noundef %i, i32 noundef %unitIndex, i32 noundef %count) unnamed_addr #7 align 2 {
entry:
  %elements = getelementptr inbounds i8, ptr %this, i64 80
  %0 = load ptr, ptr %elements, align 8
  %add.i = add i32 %unitIndex, 1
  %fUnion.i.i.i.i.i = getelementptr inbounds i8, ptr %this, i64 24
  %1 = load i16, ptr %fUnion.i.i.i.i.i, align 8
  %cmp.i.i.i.i.i = icmp slt i16 %1, 0
  %2 = ashr i16 %1, 5
  %shr.i.i.i.i.i = sext i16 %2 to i32
  %fLength.i.i.i.i = getelementptr inbounds i8, ptr %this, i64 28
  %3 = load i32, ptr %fLength.i.i.i.i, align 4
  %cond.i.i.i.i = select i1 %cmp.i.i.i.i.i, i32 %3, i32 %shr.i.i.i.i.i
  %4 = and i16 %1, 2
  %tobool.not.i.i.i.i15 = icmp eq i16 %4, 0
  %fBuffer.i.i.i.i16 = getelementptr inbounds i8, ptr %this, i64 26
  %fArray.i.i.i.i17 = getelementptr inbounds i8, ptr %this, i64 40
  %5 = load ptr, ptr %fArray.i.i.i.i17, align 8
  %cond.i2.i.i.i18 = select i1 %tobool.not.i.i.i.i15, ptr %5, ptr %fBuffer.i.i.i.i16
  br label %do.body

do.body:                                          ; preds = %do.cond, %entry
  %count.addr.0 = phi i32 [ %count, %entry ], [ %dec, %do.cond ]
  %i.addr.0 = phi i32 [ %i, %entry ], [ %10, %do.cond ]
  %idxprom = sext i32 %i.addr.0 to i64
  %arrayidx = getelementptr inbounds %"class.icu_75::UCharsTrieElement", ptr %0, i64 %idxprom
  %6 = load i32, ptr %arrayidx, align 4
  %add2.i = add i32 %6, %add.i
  %cmp.i.i.i = icmp ugt i32 %cond.i.i.i.i, %add2.i
  br i1 %cmp.i.i.i, label %if.then.i.i.i, label %_ZNK6icu_7517UCharsTrieElement6charAtEiRKNS_13UnicodeStringE.exit

if.then.i.i.i:                                    ; preds = %do.body
  %idxprom.i.i.i = sext i32 %add2.i to i64
  %arrayidx.i.i.i = getelementptr inbounds i16, ptr %cond.i2.i.i.i18, i64 %idxprom.i.i.i
  %7 = load i16, ptr %arrayidx.i.i.i, align 2
  br label %_ZNK6icu_7517UCharsTrieElement6charAtEiRKNS_13UnicodeStringE.exit

_ZNK6icu_7517UCharsTrieElement6charAtEiRKNS_13UnicodeStringE.exit: ; preds = %do.body, %if.then.i.i.i
  %retval.0.i.i.i = phi i16 [ %7, %if.then.i.i.i ], [ -1, %do.body ]
  br label %while.cond

while.cond:                                       ; preds = %_ZNK6icu_7517UCharsTrieElement6charAtEiRKNS_13UnicodeStringE.exit21, %_ZNK6icu_7517UCharsTrieElement6charAtEiRKNS_13UnicodeStringE.exit
  %indvars.iv = phi i64 [ %indvars.iv.next, %_ZNK6icu_7517UCharsTrieElement6charAtEiRKNS_13UnicodeStringE.exit21 ], [ %idxprom, %_ZNK6icu_7517UCharsTrieElement6charAtEiRKNS_13UnicodeStringE.exit ]
  %indvars.iv.next = add i64 %indvars.iv, 1
  %arrayidx4 = getelementptr inbounds %"class.icu_75::UCharsTrieElement", ptr %0, i64 %indvars.iv.next
  %8 = load i32, ptr %arrayidx4, align 4
  %add2.i6 = add i32 %8, %add.i
  %cmp.i.i.i12 = icmp ugt i32 %cond.i.i.i.i, %add2.i6
  br i1 %cmp.i.i.i12, label %if.then.i.i.i14, label %_ZNK6icu_7517UCharsTrieElement6charAtEiRKNS_13UnicodeStringE.exit21

if.then.i.i.i14:                                  ; preds = %while.cond
  %idxprom.i.i.i19 = sext i32 %add2.i6 to i64
  %arrayidx.i.i.i20 = getelementptr inbounds i16, ptr %cond.i2.i.i.i18, i64 %idxprom.i.i.i19
  %9 = load i16, ptr %arrayidx.i.i.i20, align 2
  br label %_ZNK6icu_7517UCharsTrieElement6charAtEiRKNS_13UnicodeStringE.exit21

_ZNK6icu_7517UCharsTrieElement6charAtEiRKNS_13UnicodeStringE.exit21: ; preds = %while.cond, %if.then.i.i.i14
  %retval.0.i.i.i13 = phi i16 [ %9, %if.then.i.i.i14 ], [ -1, %while.cond ]
  %cmp = icmp eq i16 %retval.0.i.i.i, %retval.0.i.i.i13
  br i1 %cmp, label %while.cond, label %do.cond, !llvm.loop !19

do.cond:                                          ; preds = %_ZNK6icu_7517UCharsTrieElement6charAtEiRKNS_13UnicodeStringE.exit21
  %10 = trunc i64 %indvars.iv.next to i32
  %dec = add nsw i32 %count.addr.0, -1
  %cmp9 = icmp sgt i32 %count.addr.0, 1
  br i1 %cmp9, label %do.body, label %do.end, !llvm.loop !20

do.end:                                           ; preds = %do.cond
  ret i32 %10
}